(lp0
S''
p1
a(lp2
(dp3
S'piece'
p4
S'white_rook'
p5
sS'location'
p6
S'a1'
p7
sa(dp8
g4
S'white_pawn'
p9
sg6
S'a2'
p10
sa(dp11
g6
S'a3'
p12
sa(dp13
g6
S'a4'
p14
sa(dp15
g6
S'a5'
p16
sa(dp17
g6
S'a6'
p18
sa(dp19
g4
S'black_pawn'
p20
sg6
S'a7'
p21
sa(dp22
g4
S'black_rook'
p23
sg6
S'a8'
p24
sa(dp25
g4
S'white_knight'
p26
sg6
S'b1'
p27
sa(dp28
g4
g9
sg6
S'b2'
p29
sa(dp30
g6
S'b3'
p31
sa(dp32
g6
S'b4'
p33
sa(dp34
g6
S'b5'
p35
sa(dp36
g6
S'b6'
p37
sa(dp38
g4
g20
sg6
S'b7'
p39
sa(dp40
g4
S'black_knight'
p41
sg6
S'b8'
p42
sa(dp43
g4
S'white_bishop'
p44
sg6
S'c1'
p45
sa(dp46
g4
g9
sg6
S'c2'
p47
sa(dp48
g6
S'c3'
p49
sa(dp50
g6
S'c4'
p51
sa(dp52
g6
S'c5'
p53
sa(dp54
g6
S'c6'
p55
sa(dp56
g4
g20
sg6
S'c7'
p57
sa(dp58
g4
S'black_bishop'
p59
sg6
S'c8'
p60
sa(dp61
g4
S'white_queen'
p62
sg6
S'd1'
p63
sa(dp64
g4
g9
sg6
S'd2'
p65
sa(dp66
g6
S'd3'
p67
sa(dp68
g6
S'd4'
p69
sa(dp70
g6
S'd5'
p71
sa(dp72
g6
S'd6'
p73
sa(dp74
g4
g20
sg6
S'd7'
p75
sa(dp76
g4
S'black_queen'
p77
sg6
S'd8'
p78
sa(dp79
g4
S'white_king'
p80
sg6
S'e1'
p81
sa(dp82
g4
g9
sg6
S'e2'
p83
sa(dp84
g6
S'e3'
p85
sa(dp86
g6
S'e4'
p87
sa(dp88
g6
S'e5'
p89
sa(dp90
g6
S'e6'
p91
sa(dp92
g4
g20
sg6
S'e7'
p93
sa(dp94
g4
S'black_king'
p95
sg6
S'e8'
p96
sa(dp97
g4
g44
sg6
S'f1'
p98
sa(dp99
g4
g9
sg6
S'f2'
p100
sa(dp101
g6
S'f3'
p102
sa(dp103
g6
S'f4'
p104
sa(dp105
g6
S'f5'
p106
sa(dp107
g6
S'f6'
p108
sa(dp109
g4
g20
sg6
S'f7'
p110
sa(dp111
g4
g59
sg6
S'f8'
p112
sa(dp113
g4
g26
sg6
S'g1'
p114
sa(dp115
g4
g9
sg6
S'g2'
p116
sa(dp117
g6
S'g3'
p118
sa(dp119
g6
S'g4'
p120
sa(dp121
g6
S'g5'
p122
sa(dp123
g6
S'g6'
p124
sa(dp125
g4
g20
sg6
S'g7'
p126
sa(dp127
g4
g41
sg6
S'g8'
p128
sa(dp129
g4
g5
sg6
S'h1'
p130
sa(dp131
g4
g9
sg6
S'h2'
p132
sa(dp133
g6
S'h3'
p134
sa(dp135
g6
S'h4'
p136
sa(dp137
g6
S'h5'
p138
sa(dp139
g6
S'h6'
p140
sa(dp141
g4
g20
sg6
S'h7'
p142
sa(dp143
g4
g23
sg6
S'h8'
p144
saag1
a.